target datalayout = "e-m:e-p270:32:32-p271:32:32-p272:64:64-i64:64-i128:128-f80:128-n8:16:32:64-S128"
target triple = "x86_64-pc-linux-gnu"

%"class.OpenImageIO::v3_1_0::DeepData" = type <{ ptr, i64, i32, [4 x i8] }>

; Function Attrs: mustprogress nounwind uwtable
define void @_ZN11OpenImageIO6v3_1_08DeepDataD2Ev(ptr noundef nonnull align 8 dereferenceable(20) %0) unnamed_addr #5 align 2 {
  %2 = alloca ptr, align 8
  store ptr %0, ptr %2, align 8, !tbaa !3
  %3 = load ptr, ptr %2, align 8
  %4 = getelementptr inbounds nuw %"class.OpenImageIO::v3_1_0::DeepData", ptr %3, i32 0, i32 0
  %5 = load ptr, ptr %4, align 8, !tbaa !8
  %6 = icmp eq ptr %5, null
  br i1 %6, label %8, label %7

7:                                                ; preds = %1
  call void @_ZN11OpenImageIO6v3_1_08DeepData4ImplD2Ev(ptr noundef nonnull align 8 dereferenceable(250) %5) #3
  call void @_ZdlPvm(ptr noundef %5, i64 noundef 256) #21
  br label %8

8:                                                ; preds = %7, %1
  ret void
}